target datalayout = "e-m:e-p270:32:32-p271:32:32-p272:64:64-i64:64-i128:128-f80:128-n8:16:32:64-S128"
target triple = "x86_64-unknown-linux-gnu"

%"class.std::set.0" = type { %"class.std::_Rb_tree.1" }
%"class.std::_Rb_tree.1" = type { %"struct.std::_Rb_tree<QuantLib::Observer *, QuantLib::Observer *, std::_Identity<QuantLib::Observer *>, std::less<QuantLib::Observer *>>::_Rb_tree_impl" }
%"struct.std::_Rb_tree<QuantLib::Observer *, QuantLib::Observer *, std::_Identity<QuantLib::Observer *>, std::less<QuantLib::Observer *>>::_Rb_tree_impl" = type { [8 x i8], %"struct.std::_Rb_tree_header" }
%"struct.std::_Rb_tree_header" = type { %"struct.std::_Rb_tree_node_base", i64 }
%"struct.std::_Rb_tree_node_base" = type { i32, ptr, ptr, ptr }
%"class.std::set" = type { %"class.std::_Rb_tree" }
%"class.std::_Rb_tree" = type { %"struct.std::_Rb_tree<boost::shared_ptr<QuantLib::Observable>, boost::shared_ptr<QuantLib::Observable>, std::_Identity<boost::shared_ptr<QuantLib::Observable>>, std::less<boost::shared_ptr<QuantLib::Observable>>>::_Rb_tree_impl" }
%"struct.std::_Rb_tree<boost::shared_ptr<QuantLib::Observable>, boost::shared_ptr<QuantLib::Observable>, std::_Identity<boost::shared_ptr<QuantLib::Observable>>, std::less<boost::shared_ptr<QuantLib::Observable>>>::_Rb_tree_impl" = type { [8 x i8], %"struct.std::_Rb_tree_header" }
%"class.boost::detail::shared_count" = type { ptr }
%"class.QuantLib::Observable" = type { ptr, %"class.std::set.0" }
%"class.QuantLib::Observer" = type { ptr, %"class.std::set" }
%"class.boost::shared_ptr.54" = type { ptr, %"class.boost::detail::shared_count" }
%"class.QuantLib::CmsMarket" = type { %"class.QuantLib::LazyObject.base", %"class.std::vector", %"class.std::vector.49", %"class.boost::shared_ptr.54", %"class.std::vector.40", %"class.std::vector.56", %"class.QuantLib::Handle", i64, i64, %"class.std::vector", %"class.QuantLib::Matrix", %"class.QuantLib::Matrix", %"class.QuantLib::Matrix", %"class.QuantLib::Matrix", %"class.QuantLib::Matrix", %"class.QuantLib::Matrix", %"class.QuantLib::Matrix", %"class.QuantLib::Matrix", %"class.QuantLib::Matrix", %"class.QuantLib::Matrix", %"class.QuantLib::Matrix", %"class.QuantLib::Matrix", %"class.QuantLib::Matrix", %"class.std::vector.61", %"class.std::vector.61", %"class.QuantLib::Observable", %"class.QuantLib::Observer" }
%"class.QuantLib::LazyObject.base" = type <{ ptr, i8, i8, i8, i8 }>
%"class.std::vector.49" = type { %"struct.std::_Vector_base.50" }
%"struct.std::_Vector_base.50" = type { %"struct.std::_Vector_base<boost::shared_ptr<QuantLib::SwapIndex>, std::allocator<boost::shared_ptr<QuantLib::SwapIndex>>>::_Vector_impl" }
%"struct.std::_Vector_base<boost::shared_ptr<QuantLib::SwapIndex>, std::allocator<boost::shared_ptr<QuantLib::SwapIndex>>>::_Vector_impl" = type { %"struct.std::_Vector_base<boost::shared_ptr<QuantLib::SwapIndex>, std::allocator<boost::shared_ptr<QuantLib::SwapIndex>>>::_Vector_impl_data" }
%"struct.std::_Vector_base<boost::shared_ptr<QuantLib::SwapIndex>, std::allocator<boost::shared_ptr<QuantLib::SwapIndex>>>::_Vector_impl_data" = type { ptr, ptr, ptr }
%"class.std::vector.40" = type { %"struct.std::_Vector_base.41" }
%"struct.std::_Vector_base.41" = type { %"struct.std::_Vector_base<std::vector<QuantLib::Handle<QuantLib::Quote>>, std::allocator<std::vector<QuantLib::Handle<QuantLib::Quote>>>>::_Vector_impl" }
%"struct.std::_Vector_base<std::vector<QuantLib::Handle<QuantLib::Quote>>, std::allocator<std::vector<QuantLib::Handle<QuantLib::Quote>>>>::_Vector_impl" = type { %"struct.std::_Vector_base<std::vector<QuantLib::Handle<QuantLib::Quote>>, std::allocator<std::vector<QuantLib::Handle<QuantLib::Quote>>>>::_Vector_impl_data" }
%"struct.std::_Vector_base<std::vector<QuantLib::Handle<QuantLib::Quote>>, std::allocator<std::vector<QuantLib::Handle<QuantLib::Quote>>>>::_Vector_impl_data" = type { ptr, ptr, ptr }
%"class.std::vector.56" = type { %"struct.std::_Vector_base.57" }
%"struct.std::_Vector_base.57" = type { %"struct.std::_Vector_base<boost::shared_ptr<QuantLib::CmsCouponPricer>, std::allocator<boost::shared_ptr<QuantLib::CmsCouponPricer>>>::_Vector_impl" }
%"struct.std::_Vector_base<boost::shared_ptr<QuantLib::CmsCouponPricer>, std::allocator<boost::shared_ptr<QuantLib::CmsCouponPricer>>>::_Vector_impl" = type { %"struct.std::_Vector_base<boost::shared_ptr<QuantLib::CmsCouponPricer>, std::allocator<boost::shared_ptr<QuantLib::CmsCouponPricer>>>::_Vector_impl_data" }
%"struct.std::_Vector_base<boost::shared_ptr<QuantLib::CmsCouponPricer>, std::allocator<boost::shared_ptr<QuantLib::CmsCouponPricer>>>::_Vector_impl_data" = type { ptr, ptr, ptr }
%"class.QuantLib::Handle" = type { %"class.boost::shared_ptr.55" }
%"class.boost::shared_ptr.55" = type { ptr, %"class.boost::detail::shared_count" }
%"class.std::vector" = type { %"struct.std::_Vector_base" }
%"struct.std::_Vector_base" = type { %"struct.std::_Vector_base<QuantLib::Period, std::allocator<QuantLib::Period>>::_Vector_impl" }
%"struct.std::_Vector_base<QuantLib::Period, std::allocator<QuantLib::Period>>::_Vector_impl" = type { %"struct.std::_Vector_base<QuantLib::Period, std::allocator<QuantLib::Period>>::_Vector_impl_data" }
%"struct.std::_Vector_base<QuantLib::Period, std::allocator<QuantLib::Period>>::_Vector_impl_data" = type { ptr, ptr, ptr }
%"class.QuantLib::Matrix" = type { %"class.std::unique_ptr", i64, i64 }
%"class.std::unique_ptr" = type { %"struct.std::__uniq_ptr_data" }
%"struct.std::__uniq_ptr_data" = type { %"class.std::__uniq_ptr_impl" }
%"class.std::__uniq_ptr_impl" = type { %"class.std::tuple" }
%"class.std::tuple" = type { %"struct.std::_Tuple_impl" }
%"struct.std::_Tuple_impl" = type { %"struct.std::_Head_base.46" }
%"struct.std::_Head_base.46" = type { ptr }
%"class.std::vector.61" = type { %"struct.std::_Vector_base.62" }
%"struct.std::_Vector_base.62" = type { %"struct.std::_Vector_base<std::vector<boost::shared_ptr<QuantLib::Swap>>, std::allocator<std::vector<boost::shared_ptr<QuantLib::Swap>>>>::_Vector_impl" }
%"struct.std::_Vector_base<std::vector<boost::shared_ptr<QuantLib::Swap>>, std::allocator<std::vector<boost::shared_ptr<QuantLib::Swap>>>>::_Vector_impl" = type { %"struct.std::_Vector_base<std::vector<boost::shared_ptr<QuantLib::Swap>>, std::allocator<std::vector<boost::shared_ptr<QuantLib::Swap>>>>::_Vector_impl_data" }
%"struct.std::_Vector_base<std::vector<boost::shared_ptr<QuantLib::Swap>>, std::allocator<std::vector<boost::shared_ptr<QuantLib::Swap>>>>::_Vector_impl_data" = type { ptr, ptr, ptr }

; Function Attrs: mustprogress nounwind uwtable
define linkonce_odr noundef nonnull align 8 dereferenceable(8) ptr @_ZNSt10_Head_baseILm0EPdLb0EE7_M_headERKS1_(ptr noundef nonnull align 8 dereferenceable(8) %__b) #1 comdat align 2 {
entry:
  %__b.addr = alloca ptr, align 8
  store ptr %__b, ptr %__b.addr, align 8, !tbaa !3
  %0 = load ptr, ptr %__b.addr, align 8, !tbaa !3
  %_M_head_impl = getelementptr inbounds nuw %"struct.std::_Head_base.46", ptr %0, i32 0, i32 0
  ret ptr %_M_head_impl
}

; Function Attrs: mustprogress nounwind uwtable
define linkonce_odr noundef nonnull align 8 dereferenceable(8) ptr @_ZNSt11_Tuple_implILm0EJPdSt14default_deleteIA_dEEE7_M_headERKS4_(ptr noundef nonnull align 8 dereferenceable(8) %__t) #1 comdat align 2 {
entry:
  %__t.addr = alloca ptr, align 8
  store ptr %__t, ptr %__t.addr, align 8, !tbaa !3
  %0 = load ptr, ptr %__t.addr, align 8, !tbaa !3
  %call = call noundef nonnull align 8 dereferenceable(8) ptr @_ZNSt10_Head_baseILm0EPdLb0EE7_M_headERKS1_(ptr noundef nonnull align 8 dereferenceable(8) %0) #17
  ret ptr %call
}

; Function Attrs: mustprogress nounwind uwtable
define linkonce_odr noundef nonnull align 8 dereferenceable(8) ptr @_ZSt12__get_helperILm0EPdJSt14default_deleteIA_dEEERKT0_RKSt11_Tuple_implIXT_EJS4_DpT1_EE(ptr noundef nonnull align 8 dereferenceable(8) %__t) #1 comdat {
entry:
  %__t.addr = alloca ptr, align 8
  store ptr %__t, ptr %__t.addr, align 8, !tbaa !3
  %0 = load ptr, ptr %__t.addr, align 8, !tbaa !3
  %call = call noundef nonnull align 8 dereferenceable(8) ptr @_ZNSt11_Tuple_implILm0EJPdSt14default_deleteIA_dEEE7_M_headERKS4_(ptr noundef nonnull align 8 dereferenceable(8) %0) #17
  ret ptr %call
}

; Function Attrs: mustprogress nounwind uwtable
define linkonce_odr noundef nonnull align 8 dereferenceable(8) ptr @_ZSt3getILm0EJPdSt14default_deleteIA_dEEERKNSt13tuple_elementIXT_ESt5tupleIJDpT0_EEE4typeERKS8_(ptr noundef nonnull align 8 dereferenceable(8) %__t) #1 comdat {
entry:
  %__t.addr = alloca ptr, align 8
  store ptr %__t, ptr %__t.addr, align 8, !tbaa !3
  %0 = load ptr, ptr %__t.addr, align 8, !tbaa !3
  %call = call noundef nonnull align 8 dereferenceable(8) ptr @_ZSt12__get_helperILm0EPdJSt14default_deleteIA_dEEERKT0_RKSt11_Tuple_implIXT_EJS4_DpT1_EE(ptr noundef nonnull align 8 dereferenceable(8) %0) #17
  ret ptr %call
}

; Function Attrs: mustprogress nounwind uwtable
define linkonce_odr noundef ptr @_ZNKSt15__uniq_ptr_implIdSt14default_deleteIA_dEE6_M_ptrEv(ptr noundef nonnull align 8 dereferenceable(8) %this) #1 comdat align 2 {
entry:
  %this.addr = alloca ptr, align 8
  store ptr %this, ptr %this.addr, align 8, !tbaa !3
  %this1 = load ptr, ptr %this.addr, align 8
  %_M_t = getelementptr inbounds nuw %"class.std::__uniq_ptr_impl", ptr %this1, i32 0, i32 0
  %call = call noundef nonnull align 8 dereferenceable(8) ptr @_ZSt3getILm0EJPdSt14default_deleteIA_dEEERKNSt13tuple_elementIXT_ESt5tupleIJDpT0_EEE4typeERKS8_(ptr noundef nonnull align 8 dereferenceable(8) %_M_t) #17
  %0 = load ptr, ptr %call, align 8, !tbaa !3
  ret ptr %0
}

; Function Attrs: mustprogress nounwind uwtable
define linkonce_odr noundef ptr @_ZNKSt10unique_ptrIA_dSt14default_deleteIS0_EE3getEv(ptr noundef nonnull align 8 dereferenceable(8) %this) #1 comdat align 2 {
entry:
  %this.addr = alloca ptr, align 8
  store ptr %this, ptr %this.addr, align 8, !tbaa !3
  %this1 = load ptr, ptr %this.addr, align 8
  %_M_t = getelementptr inbounds nuw %"class.std::unique_ptr", ptr %this1, i32 0, i32 0
  %call = call noundef ptr @_ZNKSt15__uniq_ptr_implIdSt14default_deleteIA_dEE6_M_ptrEv(ptr noundef nonnull align 8 dereferenceable(8) %_M_t) #17
  ret ptr %call
}

; Function Attrs: inlinehint mustprogress nounwind uwtable
define linkonce_odr noundef ptr @_ZNK8QuantLib6Matrix9row_beginEm(ptr noundef nonnull align 8 dereferenceable(24) %this, i64 noundef %i) #5 comdat align 2 {
entry:
  %this.addr = alloca ptr, align 8
  %i.addr = alloca i64, align 8
  store ptr %this, ptr %this.addr, align 8, !tbaa !3
  store i64 %i, ptr %i.addr, align 8, !tbaa !62
  %this1 = load ptr, ptr %this.addr, align 8
  %data_ = getelementptr inbounds nuw %"class.QuantLib::Matrix", ptr %this1, i32 0, i32 0
  %call = call noundef ptr @_ZNKSt10unique_ptrIA_dSt14default_deleteIS0_EE3getEv(ptr noundef nonnull align 8 dereferenceable(8) %data_) #17
  %columns_ = getelementptr inbounds nuw %"class.QuantLib::Matrix", ptr %this1, i32 0, i32 2
  %0 = load i64, ptr %columns_, align 8, !tbaa !83
  %1 = load i64, ptr %i.addr, align 8, !tbaa !62
  %mul = mul i64 %0, %1
  %add.ptr = getelementptr inbounds nuw double, ptr %call, i64 %mul
  ret ptr %add.ptr
}

; Function Attrs: inlinehint mustprogress uwtable
define linkonce_odr noundef ptr @_ZNK8QuantLib6MatrixixEm(ptr noundef nonnull align 8 dereferenceable(24) %this, i64 noundef %i) #4 comdat align 2 {
entry:
  %this.addr = alloca ptr, align 8
  %i.addr = alloca i64, align 8
  store ptr %this, ptr %this.addr, align 8, !tbaa !3
  store i64 %i, ptr %i.addr, align 8, !tbaa !62
  %this1 = load ptr, ptr %this.addr, align 8
  %0 = load i64, ptr %i.addr, align 8, !tbaa !62
  %call = call noundef ptr @_ZNK8QuantLib6Matrix9row_beginEm(ptr noundef nonnull align 8 dereferenceable(24) %this1, i64 noundef %0)
  ret ptr %call
}

; Function Attrs: mustprogress uwtable
define noundef double @_ZNK8QuantLib9CmsMarket12weightedMeanERKNS_6MatrixES3_(ptr noundef nonnull align 8 dereferenceable(544) %this, ptr noundef nonnull align 8 dereferenceable(24) %var, ptr noundef nonnull align 8 dereferenceable(24) %w) #2 align 2 {
entry:
  %this.addr = alloca ptr, align 8
  %var.addr = alloca ptr, align 8
  %w.addr = alloca ptr, align 8
  %mean = alloca double, align 8
  %i = alloca i64, align 8
  %cleanup.dest.slot = alloca i32, align 4
  %j = alloca i64, align 8
  store ptr %this, ptr %this.addr, align 8, !tbaa !3
  store ptr %var, ptr %var.addr, align 8, !tbaa !3
  store ptr %w, ptr %w.addr, align 8, !tbaa !3
  %this1 = load ptr, ptr %this.addr, align 8
  call void @llvm.lifetime.start.p0(i64 8, ptr %mean) #17
  store double 0.000000e+00, ptr %mean, align 8, !tbaa !99
  call void @llvm.lifetime.start.p0(i64 8, ptr %i) #17
  store i64 0, ptr %i, align 8, !tbaa !62
  br label %for.cond

for.cond:                                         ; preds = %for.inc11, %entry
  %0 = load i64, ptr %i, align 8, !tbaa !62
  %nExercise_ = getelementptr inbounds nuw %"class.QuantLib::CmsMarket", ptr %this1, i32 0, i32 7
  %1 = load i64, ptr %nExercise_, align 8, !tbaa !28
  %cmp = icmp ult i64 %0, %1
  br i1 %cmp, label %for.body, label %for.cond.cleanup

for.cond.cleanup:                                 ; preds = %for.cond
  store i32 2, ptr %cleanup.dest.slot, align 4
  call void @llvm.lifetime.end.p0(i64 8, ptr %i) #17
  br label %for.end13

for.body:                                         ; preds = %for.cond
  call void @llvm.lifetime.start.p0(i64 8, ptr %j) #17
  store i64 0, ptr %j, align 8, !tbaa !62
  br label %for.cond2

for.cond2:                                        ; preds = %for.inc, %for.body
  %2 = load i64, ptr %j, align 8, !tbaa !62
  %nSwapIndexes_ = getelementptr inbounds nuw %"class.QuantLib::CmsMarket", ptr %this1, i32 0, i32 8
  %3 = load i64, ptr %nSwapIndexes_, align 8, !tbaa !61
  %cmp3 = icmp ult i64 %2, %3
  br i1 %cmp3, label %for.body5, label %for.cond.cleanup4

for.cond.cleanup4:                                ; preds = %for.cond2
  store i32 5, ptr %cleanup.dest.slot, align 4
  call void @llvm.lifetime.end.p0(i64 8, ptr %j) #17
  br label %for.end

for.body5:                                        ; preds = %for.cond2
  %4 = load ptr, ptr %w.addr, align 8, !tbaa !3
  %5 = load i64, ptr %i, align 8, !tbaa !62
  %call = call noundef ptr @_ZNK8QuantLib6MatrixixEm(ptr noundef nonnull align 8 dereferenceable(24) %4, i64 noundef %5)
  %6 = load i64, ptr %j, align 8, !tbaa !62
  %arrayidx = getelementptr inbounds nuw double, ptr %call, i64 %6
  %7 = load double, ptr %arrayidx, align 8, !tbaa !99
  %8 = load ptr, ptr %var.addr, align 8, !tbaa !3
  %9 = load i64, ptr %i, align 8, !tbaa !62
  %call6 = call noundef ptr @_ZNK8QuantLib6MatrixixEm(ptr noundef nonnull align 8 dereferenceable(24) %8, i64 noundef %9)
  %10 = load i64, ptr %j, align 8, !tbaa !62
  %arrayidx7 = getelementptr inbounds nuw double, ptr %call6, i64 %10
  %11 = load double, ptr %arrayidx7, align 8, !tbaa !99
  %mul = fmul double %7, %11
  %12 = load ptr, ptr %var.addr, align 8, !tbaa !3
  %13 = load i64, ptr %i, align 8, !tbaa !62
  %call8 = call noundef ptr @_ZNK8QuantLib6MatrixixEm(ptr noundef nonnull align 8 dereferenceable(24) %12, i64 noundef %13)
  %14 = load i64, ptr %j, align 8, !tbaa !62
  %arrayidx9 = getelementptr inbounds nuw double, ptr %call8, i64 %14
  %15 = load double, ptr %arrayidx9, align 8, !tbaa !99
  %16 = load double, ptr %mean, align 8, !tbaa !99
  %17 = call double @llvm.fmuladd.f64(double %mul, double %15, double %16)
  store double %17, ptr %mean, align 8, !tbaa !99
  br label %for.inc

for.inc:                                          ; preds = %for.body5
  %18 = load i64, ptr %j, align 8, !tbaa !62
  %inc = add i64 %18, 1
  store i64 %inc, ptr %j, align 8, !tbaa !62
  br label %for.cond2, !llvm.loop !121

for.end:                                          ; preds = %for.cond.cleanup4
  br label %for.inc11

for.inc11:                                        ; preds = %for.end
  %19 = load i64, ptr %i, align 8, !tbaa !62
  %inc12 = add i64 %19, 1
  store i64 %inc12, ptr %i, align 8, !tbaa !62
  br label %for.cond, !llvm.loop !122

for.end13:                                        ; preds = %for.cond.cleanup
  %20 = load double, ptr %mean, align 8, !tbaa !99
  %nExercise_14 = getelementptr inbounds nuw %"class.QuantLib::CmsMarket", ptr %this1, i32 0, i32 7
  %21 = load i64, ptr %nExercise_14, align 8, !tbaa !28
  %nSwapIndexes_15 = getelementptr inbounds nuw %"class.QuantLib::CmsMarket", ptr %this1, i32 0, i32 8
  %22 = load i64, ptr %nSwapIndexes_15, align 8, !tbaa !61
  %mul16 = mul i64 %21, %22
  %conv = uitofp i64 %mul16 to double
  %div = fdiv double %20, %conv
  %call17 = call double @sqrt(double noundef %div) #17, !tbaa !64
  store double %call17, ptr %mean, align 8, !tbaa !99
  %23 = load double, ptr %mean, align 8, !tbaa !99
  store i32 1, ptr %cleanup.dest.slot, align 4
  call void @llvm.lifetime.end.p0(i64 8, ptr %mean) #17
  ret double %23
}

; Function Attrs: mustprogress uwtable
define noundef double @_ZN8QuantLib9CmsMarket19weightedSpreadErrorERKNS_6MatrixE(ptr noundef nonnull align 8 dereferenceable(544) %this, ptr noundef nonnull align 8 dereferenceable(24) %w) #2 align 2 {
entry:
  %this.addr = alloca ptr, align 8
  %w.addr = alloca ptr, align 8
  store ptr %this, ptr %this.addr, align 8, !tbaa !3
  store ptr %w, ptr %w.addr, align 8, !tbaa !3
  %this1 = load ptr, ptr %this.addr, align 8
  %vtable = load ptr, ptr %this1, align 8, !tbaa !20
  %vfn = getelementptr inbounds ptr, ptr %vtable, i64 4
  %0 = load ptr, ptr %vfn, align 8
  call void %0(ptr noundef nonnull align 8 dereferenceable(544) %this1)
  %errSpreads_ = getelementptr inbounds nuw %"class.QuantLib::CmsMarket", ptr %this1, i32 0, i32 16
  %1 = load ptr, ptr %w.addr, align 8, !tbaa !3
  %call = call noundef double @_ZNK8QuantLib9CmsMarket12weightedMeanERKNS_6MatrixES3_(ptr noundef nonnull align 8 dereferenceable(544) %this1, ptr noundef nonnull align 8 dereferenceable(24) %errSpreads_, ptr noundef nonnull align 8 dereferenceable(24) %1)
  ret double %call
}