; Function Attrs: mustprogress uwtable
define noundef double @_ZN8QuantLib9CmsMarket19weightedSpreadErrorERKNS_6MatrixE(ptr noundef nonnull align 8 dereferenceable(544) %this, ptr nocapture noundef nonnull readonly align 8 dereferenceable(24) %w) local_unnamed_addr #8 align 2 {
entry:
  %vtable = load ptr, ptr %this, align 8, !tbaa !33
  %vfn = getelementptr inbounds i8, ptr %vtable, i64 32
  %0 = load ptr, ptr %vfn, align 8
  tail call void %0(ptr noundef nonnull align 8 dereferenceable(544) %this)
  %nExercise_.i = getelementptr inbounds nuw i8, ptr %this, i64 144
  %1 = load i64, ptr %nExercise_.i, align 8, !tbaa !75
  %cmp21.not.i = icmp eq i64 %1, 0
  %nSwapIndexes_15.phi.trans.insert.i = getelementptr inbounds nuw i8, ptr %this, i64 152
  %.pre.i = load i64, ptr %nSwapIndexes_15.phi.trans.insert.i, align 8, !tbaa !101
  br i1 %cmp21.not.i, label %_ZNK8QuantLib9CmsMarket12weightedMeanERKNS_6MatrixES3_.exit, label %for.cond2.preheader.lr.ph.i

for.cond2.preheader.lr.ph.i:                      ; preds = %entry
  %errSpreads_ = getelementptr inbounds nuw i8, ptr %this, i64 328
  %cmp318.not.i = icmp eq i64 %.pre.i, 0
  %2 = load ptr, ptr %w, align 8
  %columns_.i.i.i = getelementptr inbounds nuw i8, ptr %w, i64 16
  %3 = load i64, ptr %columns_.i.i.i, align 8
  %4 = load ptr, ptr %errSpreads_, align 8
  %columns_.i.i12.i = getelementptr inbounds nuw i8, ptr %this, i64 344
  %5 = load i64, ptr %columns_.i.i12.i, align 8
  br i1 %cmp318.not.i, label %_ZNK8QuantLib9CmsMarket12weightedMeanERKNS_6MatrixES3_.exit, label %for.cond2.preheader.us.i

for.cond2.preheader.us.i:                         ; preds = %for.cond2.preheader.lr.ph.i, %for.cond2.for.cond.cleanup4_crit_edge.us.i
  %i.023.us.i = phi i64 [ %inc12.us.i, %for.cond2.for.cond.cleanup4_crit_edge.us.i ], [ 0, %for.cond2.preheader.lr.ph.i ]
  %mean.022.us.i = phi double [ %8, %for.cond2.for.cond.cleanup4_crit_edge.us.i ], [ 0.000000e+00, %for.cond2.preheader.lr.ph.i ]
  %mul.i.i.us.i = mul i64 %i.023.us.i, %3
  %add.ptr.i.i.us.i = getelementptr inbounds nuw double, ptr %2, i64 %mul.i.i.us.i
  %mul.i.i13.us.i = mul i64 %i.023.us.i, %5
  %add.ptr.i.i14.us.i = getelementptr inbounds nuw double, ptr %4, i64 %mul.i.i13.us.i
  br label %for.body5.us.i

for.body5.us.i:                                   ; preds = %for.body5.us.i, %for.cond2.preheader.us.i
  %j.020.us.i = phi i64 [ 0, %for.cond2.preheader.us.i ], [ %inc.us.i, %for.body5.us.i ]
  %mean.119.us.i = phi double [ %mean.022.us.i, %for.cond2.preheader.us.i ], [ %8, %for.body5.us.i ]
  %arrayidx.us.i = getelementptr inbounds nuw double, ptr %add.ptr.i.i.us.i, i64 %j.020.us.i
  %6 = load double, ptr %arrayidx.us.i, align 8, !tbaa !144
  %arrayidx7.us.i = getelementptr inbounds nuw double, ptr %add.ptr.i.i14.us.i, i64 %j.020.us.i
  %7 = load double, ptr %arrayidx7.us.i, align 8, !tbaa !144
  %mul.us.i = fmul double %6, %7
  %8 = tail call double @llvm.fmuladd.f64(double %mul.us.i, double %7, double %mean.119.us.i)
  %inc.us.i = add nuw i64 %j.020.us.i, 1
  %exitcond.not.i = icmp eq i64 %inc.us.i, %.pre.i
  br i1 %exitcond.not.i, label %for.cond2.for.cond.cleanup4_crit_edge.us.i, label %for.body5.us.i, !llvm.loop !199

for.cond2.for.cond.cleanup4_crit_edge.us.i:       ; preds = %for.body5.us.i
  %inc12.us.i = add nuw i64 %i.023.us.i, 1
  %exitcond28.not.i = icmp eq i64 %inc12.us.i, %1
  br i1 %exitcond28.not.i, label %_ZNK8QuantLib9CmsMarket12weightedMeanERKNS_6MatrixES3_.exit, label %for.cond2.preheader.us.i, !llvm.loop !200

_ZNK8QuantLib9CmsMarket12weightedMeanERKNS_6MatrixES3_.exit: ; preds = %for.cond2.for.cond.cleanup4_crit_edge.us.i, %entry, %for.cond2.preheader.lr.ph.i
  %9 = phi i64 [ 0, %for.cond2.preheader.lr.ph.i ], [ %.pre.i, %entry ], [ %.pre.i, %for.cond2.for.cond.cleanup4_crit_edge.us.i ]
  %mean.0.lcssa.i = phi double [ 0.000000e+00, %for.cond2.preheader.lr.ph.i ], [ 0.000000e+00, %entry ], [ %8, %for.cond2.for.cond.cleanup4_crit_edge.us.i ]
  %mul16.i = mul i64 %9, %1
  %conv.i = uitofp i64 %mul16.i to double
  %div.i = fdiv double %mean.0.lcssa.i, %conv.i
  %call17.i = tail call noundef double @sqrt(double noundef %div.i) #29, !tbaa !201
  ret double %call17.i
}